target datalayout = "e-m:e-p270:32:32-p271:32:32-p272:64:64-i64:64-i128:128-f80:128-n8:16:32:64-S128"
target triple = "x86_64-unknown-linux-gnu"

; Function Attrs: mustprogress sspstrong uwtable
define noundef i32 @_ZN4FLAC7Decoder6Stream13eof_callback_EPK19FLAC__StreamDecoderPv(ptr noundef %decoder, ptr noundef %client_data) #0 align 2 {
entry:
  %decoder.addr = alloca ptr, align 8
  %client_data.addr = alloca ptr, align 8
  %instance = alloca ptr, align 8
  store ptr %decoder, ptr %decoder.addr, align 8
  store ptr %client_data, ptr %client_data.addr, align 8
  %0 = load ptr, ptr %client_data.addr, align 8
  store ptr %0, ptr %instance, align 8
  %1 = load ptr, ptr %instance, align 8
  %vtable = load ptr, ptr %1, align 8
  %vfn = getelementptr inbounds ptr, ptr %vtable, i64 33
  %2 = load ptr, ptr %vfn, align 8
  %call = call noundef zeroext i1 %2(ptr noundef nonnull align 8 dereferenceable(16) %1)
  %conv = zext i1 %call to i32
  ret i32 %conv
}