; Function Attrs: mustprogress sspstrong uwtable
define noundef i32 @_ZN4FLAC7Decoder6Stream13eof_callback_EPK19FLAC__StreamDecoderPv(ptr nocapture readnone %decoder, ptr noundef %client_data) #0 align 2 {
entry:
  %vtable = load ptr, ptr %client_data, align 8
  %vfn = getelementptr inbounds i8, ptr %vtable, i64 264
  %0 = load ptr, ptr %vfn, align 8
  %call = tail call noundef zeroext i1 %0(ptr noundef nonnull align 8 dereferenceable(16) %client_data)
  %conv = zext i1 %call to i32
  ret i32 %conv
}